; Function Attrs: mustprogress uwtable
define hidden void @_ZN14decl_collector4pushEv(ptr noundef nonnull align 8 dereferenceable(464) %this) local_unnamed_addr #3 align 2 {
entry:
  %m_trail_lim = getelementptr inbounds i8, ptr %this, i64 128
  %m_nodes.i = getelementptr inbounds i8, ptr %this, i64 120
  %0 = load ptr, ptr %m_nodes.i, align 8
  %cmp.i.i = icmp eq ptr %0, null
  br i1 %cmp.i.i, label %_ZNK15ref_vector_coreI3ast19ref_manager_wrapperIS0_11ast_managerEE4sizeEv.exit, label %if.end.i.i

if.end.i.i:                                       ; preds = %entry
  %arrayidx.i.i = getelementptr inbounds i8, ptr %0, i64 -4
  %1 = load i32, ptr %arrayidx.i.i, align 4
  br label %_ZNK15ref_vector_coreI3ast19ref_manager_wrapperIS0_11ast_managerEE4sizeEv.exit

_ZNK15ref_vector_coreI3ast19ref_manager_wrapperIS0_11ast_managerEE4sizeEv.exit: ; preds = %entry, %if.end.i.i
  %retval.0.i.i = phi i32 [ %1, %if.end.i.i ], [ 0, %entry ]
  %2 = load ptr, ptr %m_trail_lim, align 8
  %cmp.i = icmp eq ptr %2, null
  br i1 %cmp.i, label %if.then.i, label %lor.lhs.false.i

lor.lhs.false.i:                                  ; preds = %_ZNK15ref_vector_coreI3ast19ref_manager_wrapperIS0_11ast_managerEE4sizeEv.exit
  %arrayidx.i = getelementptr inbounds i8, ptr %2, i64 -4
  %3 = load i32, ptr %arrayidx.i, align 4
  %arrayidx4.i = getelementptr inbounds i8, ptr %2, i64 -8
  %4 = load i32, ptr %arrayidx4.i, align 4
  %cmp5.i = icmp eq i32 %3, %4
  br i1 %cmp5.i, label %if.then.i, label %_ZN6vectorIjLb0EjE9push_backEOj.exit

if.then.i:                                        ; preds = %lor.lhs.false.i, %_ZNK15ref_vector_coreI3ast19ref_manager_wrapperIS0_11ast_managerEE4sizeEv.exit
  tail call void @_ZN6vectorIjLb0EjE13expand_vectorEv(ptr noundef nonnull align 8 dereferenceable(8) %m_trail_lim)
  %.pre.i = load ptr, ptr %m_trail_lim, align 8
  %arrayidx8.phi.trans.insert.i = getelementptr inbounds i8, ptr %.pre.i, i64 -4
  %.pre1.i = load i32, ptr %arrayidx8.phi.trans.insert.i, align 4
  br label %_ZN6vectorIjLb0EjE9push_backEOj.exit

_ZN6vectorIjLb0EjE9push_backEOj.exit:             ; preds = %lor.lhs.false.i, %if.then.i
  %5 = phi i32 [ %.pre1.i, %if.then.i ], [ %3, %lor.lhs.false.i ]
  %6 = phi ptr [ %.pre.i, %if.then.i ], [ %2, %lor.lhs.false.i ]
  %idx.ext.i = zext i32 %5 to i64
  %add.ptr.i = getelementptr inbounds i32, ptr %6, i64 %idx.ext.i
  store i32 %retval.0.i.i, ptr %add.ptr.i, align 4
  %7 = load ptr, ptr %m_trail_lim, align 8
  %arrayidx10.i = getelementptr inbounds i8, ptr %7, i64 -4
  %8 = load i32, ptr %arrayidx10.i, align 4
  %inc.i = add i32 %8, 1
  store i32 %inc.i, ptr %arrayidx10.i, align 4
  %m_sorts = getelementptr inbounds i8, ptr %this, i64 8
  %m_lim.i = getelementptr inbounds i8, ptr %this, i64 16
  %9 = load ptr, ptr %m_sorts, align 8
  %cmp.i.i1 = icmp eq ptr %9, null
  br i1 %cmp.i.i1, label %_ZNK6vectorIP4sortLb0EjE4sizeEv.exit.i, label %if.end.i.i2

if.end.i.i2:                                      ; preds = %_ZN6vectorIjLb0EjE9push_backEOj.exit
  %arrayidx.i.i3 = getelementptr inbounds i8, ptr %9, i64 -4
  %10 = load i32, ptr %arrayidx.i.i3, align 4
  br label %_ZNK6vectorIP4sortLb0EjE4sizeEv.exit.i

_ZNK6vectorIP4sortLb0EjE4sizeEv.exit.i:           ; preds = %if.end.i.i2, %_ZN6vectorIjLb0EjE9push_backEOj.exit
  %retval.0.i.i4 = phi i32 [ %10, %if.end.i.i2 ], [ 0, %_ZN6vectorIjLb0EjE9push_backEOj.exit ]
  %11 = load ptr, ptr %m_lim.i, align 8
  %cmp.i1.i = icmp eq ptr %11, null
  br i1 %cmp.i1.i, label %if.then.i.i, label %lor.lhs.false.i.i

lor.lhs.false.i.i:                                ; preds = %_ZNK6vectorIP4sortLb0EjE4sizeEv.exit.i
  %arrayidx.i2.i = getelementptr inbounds i8, ptr %11, i64 -4
  %12 = load i32, ptr %arrayidx.i2.i, align 4
  %arrayidx4.i.i = getelementptr inbounds i8, ptr %11, i64 -8
  %13 = load i32, ptr %arrayidx4.i.i, align 4
  %cmp5.i.i = icmp eq i32 %12, %13
  br i1 %cmp5.i.i, label %if.then.i.i, label %_ZN11lim_svectorIP4sortE10push_scopeEv.exit

if.then.i.i:                                      ; preds = %lor.lhs.false.i.i, %_ZNK6vectorIP4sortLb0EjE4sizeEv.exit.i
  tail call void @_ZN6vectorIjLb0EjE13expand_vectorEv(ptr noundef nonnull align 8 dereferenceable(8) %m_lim.i)
  %.pre.i.i = load ptr, ptr %m_lim.i, align 8
  %arrayidx8.phi.trans.insert.i.i = getelementptr inbounds i8, ptr %.pre.i.i, i64 -4
  %.pre1.i.i = load i32, ptr %arrayidx8.phi.trans.insert.i.i, align 4
  br label %_ZN11lim_svectorIP4sortE10push_scopeEv.exit

_ZN11lim_svectorIP4sortE10push_scopeEv.exit:      ; preds = %lor.lhs.false.i.i, %if.then.i.i
  %14 = phi i32 [ %.pre1.i.i, %if.then.i.i ], [ %12, %lor.lhs.false.i.i ]
  %15 = phi ptr [ %.pre.i.i, %if.then.i.i ], [ %11, %lor.lhs.false.i.i ]
  %idx.ext.i.i = zext i32 %14 to i64
  %add.ptr.i.i = getelementptr inbounds i32, ptr %15, i64 %idx.ext.i.i
  store i32 %retval.0.i.i4, ptr %add.ptr.i.i, align 4
  %16 = load ptr, ptr %m_lim.i, align 8
  %arrayidx10.i.i = getelementptr inbounds i8, ptr %16, i64 -4
  %17 = load i32, ptr %arrayidx10.i.i, align 4
  %inc.i.i = add i32 %17, 1
  store i32 %inc.i.i, ptr %arrayidx10.i.i, align 4
  %m_decls = getelementptr inbounds i8, ptr %this, i64 24
  %m_lim.i5 = getelementptr inbounds i8, ptr %this, i64 32
  %18 = load ptr, ptr %m_decls, align 8
  %cmp.i.i6 = icmp eq ptr %18, null
  br i1 %cmp.i.i6, label %_ZNK6vectorIP9func_declLb0EjE4sizeEv.exit.i, label %if.end.i.i7

if.end.i.i7:                                      ; preds = %_ZN11lim_svectorIP4sortE10push_scopeEv.exit
  %arrayidx.i.i8 = getelementptr inbounds i8, ptr %18, i64 -4
  %19 = load i32, ptr %arrayidx.i.i8, align 4
  br label %_ZNK6vectorIP9func_declLb0EjE4sizeEv.exit.i

_ZNK6vectorIP9func_declLb0EjE4sizeEv.exit.i:      ; preds = %if.end.i.i7, %_ZN11lim_svectorIP4sortE10push_scopeEv.exit
  %retval.0.i.i9 = phi i32 [ %19, %if.end.i.i7 ], [ 0, %_ZN11lim_svectorIP4sortE10push_scopeEv.exit ]
  %20 = load ptr, ptr %m_lim.i5, align 8
  %cmp.i1.i10 = icmp eq ptr %20, null
  br i1 %cmp.i1.i10, label %if.then.i.i19, label %lor.lhs.false.i.i11

lor.lhs.false.i.i11:                              ; preds = %_ZNK6vectorIP9func_declLb0EjE4sizeEv.exit.i
  %arrayidx.i2.i12 = getelementptr inbounds i8, ptr %20, i64 -4
  %21 = load i32, ptr %arrayidx.i2.i12, align 4
  %arrayidx4.i.i13 = getelementptr inbounds i8, ptr %20, i64 -8
  %22 = load i32, ptr %arrayidx4.i.i13, align 4
  %cmp5.i.i14 = icmp eq i32 %21, %22
  br i1 %cmp5.i.i14, label %if.then.i.i19, label %_ZN11lim_svectorIP9func_declE10push_scopeEv.exit

if.then.i.i19:                                    ; preds = %lor.lhs.false.i.i11, %_ZNK6vectorIP9func_declLb0EjE4sizeEv.exit.i
  tail call void @_ZN6vectorIjLb0EjE13expand_vectorEv(ptr noundef nonnull align 8 dereferenceable(8) %m_lim.i5)
  %.pre.i.i20 = load ptr, ptr %m_lim.i5, align 8
  %arrayidx8.phi.trans.insert.i.i21 = getelementptr inbounds i8, ptr %.pre.i.i20, i64 -4
  %.pre1.i.i22 = load i32, ptr %arrayidx8.phi.trans.insert.i.i21, align 4
  br label %_ZN11lim_svectorIP9func_declE10push_scopeEv.exit

_ZN11lim_svectorIP9func_declE10push_scopeEv.exit: ; preds = %lor.lhs.false.i.i11, %if.then.i.i19
  %23 = phi i32 [ %.pre1.i.i22, %if.then.i.i19 ], [ %21, %lor.lhs.false.i.i11 ]
  %24 = phi ptr [ %.pre.i.i20, %if.then.i.i19 ], [ %20, %lor.lhs.false.i.i11 ]
  %idx.ext.i.i15 = zext i32 %23 to i64
  %add.ptr.i.i16 = getelementptr inbounds i32, ptr %24, i64 %idx.ext.i.i15
  store i32 %retval.0.i.i9, ptr %add.ptr.i.i16, align 4
  %25 = load ptr, ptr %m_lim.i5, align 8
  %arrayidx10.i.i17 = getelementptr inbounds i8, ptr %25, i64 -4
  %26 = load i32, ptr %arrayidx10.i.i17, align 4
  %inc.i.i18 = add i32 %26, 1
  store i32 %inc.i.i18, ptr %arrayidx10.i.i17, align 4
  %m_rec_decls = getelementptr inbounds i8, ptr %this, i64 40
  %m_lim.i23 = getelementptr inbounds i8, ptr %this, i64 48
  %27 = load ptr, ptr %m_rec_decls, align 8
  %cmp.i.i24 = icmp eq ptr %27, null
  br i1 %cmp.i.i24, label %_ZNK6vectorIP9func_declLb0EjE4sizeEv.exit.i27, label %if.end.i.i25

if.end.i.i25:                                     ; preds = %_ZN11lim_svectorIP9func_declE10push_scopeEv.exit
  %arrayidx.i.i26 = getelementptr inbounds i8, ptr %27, i64 -4
  %28 = load i32, ptr %arrayidx.i.i26, align 4
  br label %_ZNK6vectorIP9func_declLb0EjE4sizeEv.exit.i27

_ZNK6vectorIP9func_declLb0EjE4sizeEv.exit.i27:    ; preds = %if.end.i.i25, %_ZN11lim_svectorIP9func_declE10push_scopeEv.exit
  %retval.0.i.i28 = phi i32 [ %28, %if.end.i.i25 ], [ 0, %_ZN11lim_svectorIP9func_declE10push_scopeEv.exit ]
  %29 = load ptr, ptr %m_lim.i23, align 8
  %cmp.i1.i29 = icmp eq ptr %29, null
  br i1 %cmp.i1.i29, label %if.then.i.i38, label %lor.lhs.false.i.i30

lor.lhs.false.i.i30:                              ; preds = %_ZNK6vectorIP9func_declLb0EjE4sizeEv.exit.i27
  %arrayidx.i2.i31 = getelementptr inbounds i8, ptr %29, i64 -4
  %30 = load i32, ptr %arrayidx.i2.i31, align 4
  %arrayidx4.i.i32 = getelementptr inbounds i8, ptr %29, i64 -8
  %31 = load i32, ptr %arrayidx4.i.i32, align 4
  %cmp5.i.i33 = icmp eq i32 %30, %31
  br i1 %cmp5.i.i33, label %if.then.i.i38, label %_ZN11lim_svectorIP9func_declE10push_scopeEv.exit42

if.then.i.i38:                                    ; preds = %lor.lhs.false.i.i30, %_ZNK6vectorIP9func_declLb0EjE4sizeEv.exit.i27
  tail call void @_ZN6vectorIjLb0EjE13expand_vectorEv(ptr noundef nonnull align 8 dereferenceable(8) %m_lim.i23)
  %.pre.i.i39 = load ptr, ptr %m_lim.i23, align 8
  %arrayidx8.phi.trans.insert.i.i40 = getelementptr inbounds i8, ptr %.pre.i.i39, i64 -4
  %.pre1.i.i41 = load i32, ptr %arrayidx8.phi.trans.insert.i.i40, align 4
  br label %_ZN11lim_svectorIP9func_declE10push_scopeEv.exit42

_ZN11lim_svectorIP9func_declE10push_scopeEv.exit42: ; preds = %lor.lhs.false.i.i30, %if.then.i.i38
  %32 = phi i32 [ %.pre1.i.i41, %if.then.i.i38 ], [ %30, %lor.lhs.false.i.i30 ]
  %33 = phi ptr [ %.pre.i.i39, %if.then.i.i38 ], [ %29, %lor.lhs.false.i.i30 ]
  %idx.ext.i.i34 = zext i32 %32 to i64
  %add.ptr.i.i35 = getelementptr inbounds i32, ptr %33, i64 %idx.ext.i.i34
  store i32 %retval.0.i.i28, ptr %add.ptr.i.i35, align 4
  %34 = load ptr, ptr %m_lim.i23, align 8
  %arrayidx10.i.i36 = getelementptr inbounds i8, ptr %34, i64 -4
  %35 = load i32, ptr %arrayidx10.i.i36, align 4
  %inc.i.i37 = add i32 %35, 1
  store i32 %inc.i.i37, ptr %arrayidx10.i.i36, align 4
  ret void
}